; Function Attrs: mustprogress sspstrong uwtable
define internal noundef i32 @_ZL27__itt_thr_name_set_init_3_0PKci(ptr noundef %0, i32 %1) #0 {
  %3 = load volatile i64, ptr getelementptr inbounds nuw (i8, ptr @__itt__ittapi_global, i64 32), align 8, !tbaa !3
  %4 = icmp eq i64 %3, 0
  %5 = load ptr, ptr getelementptr inbounds nuw (i8, ptr @__itt__ittapi_global, i64 136), align 8
  %6 = icmp eq ptr %5, null
  %or.cond.i = select i1 %4, i1 %6, i1 false
  br i1 %or.cond.i, label %7, label %8

7:                                                ; preds = %2
  tail call void @ITT_DoOneTimeInitialization()
  br label %8

8:                                                ; preds = %7, %2
  %9 = load ptr, ptr @__itt_thread_set_name_ptr__3_0, align 8, !tbaa !21
  %10 = icmp ne ptr %9, null
  %11 = icmp ne ptr %9, @_ZL30__itt_thread_set_name_init_3_0PKc
  %or.cond3.i = and i1 %10, %11
  br i1 %or.cond3.i, label %12, label %_ZL30__itt_thread_set_name_init_3_0PKc.exit

12:                                               ; preds = %8
  tail call void %9(ptr noundef %0)
  br label %_ZL30__itt_thread_set_name_init_3_0PKc.exit

_ZL30__itt_thread_set_name_init_3_0PKc.exit:      ; preds = %8, %12
  ret i32 0
}